#include <math.h>
#include <stdio.h>
#include <stdlib.h>
#include <string.h>
#include <iostream>
using namespace std;

void fenjie(int);

int solutionnum=1;//????????1???
int main()
{   int n,a,i;
    cin>>n;//????
    for(i=1;i<=n;i++)
        {cin>>a;//??????
        fenjie(a);//???????????
        cout<<solutionnum<<endl;//??
        solutionnum=1;//?????
        }
    return 0;
}
int yinzi[100]={2},i=0;
//yinzi????????????????????????????????????????????????
void fenjie(int x)
    {int j;
       for(j=yinzi[i];j<x;j++)
    	   {if(x%j==0&&x/j>=j)//j?x????????x??j????????j,??????
    		   {i++;  yinzi[i]=j;//?????????????
    		   fenjie(x/j);//?????
    		   j=yinzi[i];  i--;//?????
    		   solutionnum++;}//????+1
    	   }

	}